target datalayout = "e-m:e-p270:32:32-p271:32:32-p272:64:64-i64:64-f80:128-n8:16:32:64-S128"
target triple = "x86_64-pc-linux-gnu"

@.str = private unnamed_addr constant [3 x i8] c"%d\00", align 1
@.str.1 = private unnamed_addr constant [5 x i8] c"%s%s\00", align 1
@.str.2 = private unnamed_addr constant [4 x i8] c"%d\0A\00", align 1

; Function Attrs: noinline nounwind uwtable
define dso_local void @main() #0 {
  %1 = alloca [101 x i8], align 16
  %2 = alloca [101 x i8], align 16
  %3 = alloca [101 x i32], align 16
  %4 = alloca [101 x i32], align 16
  %5 = alloca i32*, align 8
  %6 = alloca i32, align 4
  %7 = alloca i32, align 4
  %8 = alloca i32, align 4
  %9 = alloca i32, align 4
  %10 = alloca i32, align 4
  %11 = call i32 (i8*, ...) @__isoc99_scanf(i8* getelementptr inbounds ([3 x i8], [3 x i8]* @.str, i64 0, i64 0), i32* %6)
  store i32 1, i32* %8, align 4
  br label %12

12:                                               ; preds = %180, %0
  %13 = load i32, i32* %8, align 4
  %14 = load i32, i32* %6, align 4
  %15 = icmp sle i32 %13, %14
  br i1 %15, label %16, label %183

16:                                               ; preds = %12
  %17 = getelementptr inbounds [101 x i8], [101 x i8]* %1, i64 0, i64 0
  %18 = getelementptr inbounds [101 x i8], [101 x i8]* %2, i64 0, i64 0
  %19 = call i32 (i8*, ...) @__isoc99_scanf(i8* getelementptr inbounds ([5 x i8], [5 x i8]* @.str.1, i64 0, i64 0), i8* %17, i8* %18)
  %20 = getelementptr inbounds [101 x i8], [101 x i8]* %1, i64 0, i64 0
  %21 = call i64 @strlen(i8* %20) #4
  %22 = trunc i64 %21 to i32
  store i32 %22, i32* %9, align 4
  %23 = getelementptr inbounds [101 x i8], [101 x i8]* %2, i64 0, i64 0
  %24 = call i64 @strlen(i8* %23) #4
  %25 = trunc i64 %24 to i32
  store i32 %25, i32* %10, align 4
  %26 = load i32, i32* %9, align 4
  %27 = load i32, i32* %10, align 4
  %28 = add nsw i32 %26, %27
  %29 = sext i32 %28 to i64
  %30 = mul i64 %29, 4
  %31 = call noalias i8* @malloc(i64 %30) #5
  %32 = bitcast i8* %31 to i32*
  store i32* %32, i32** %5, align 8
  %33 = load i32, i32* %9, align 4
  %34 = sub nsw i32 %33, 1
  store i32 %34, i32* %7, align 4
  br label %35

35:                                               ; preds = %48, %16
  %36 = load i32, i32* %7, align 4
  %37 = icmp sge i32 %36, 0
  br i1 %37, label %38, label %51

38:                                               ; preds = %35
  %39 = load i32, i32* %7, align 4
  %40 = sext i32 %39 to i64
  %41 = getelementptr inbounds [101 x i8], [101 x i8]* %1, i64 0, i64 %40
  %42 = load i8, i8* %41, align 1
  %43 = sext i8 %42 to i32
  %44 = sub nsw i32 %43, 48
  %45 = load i32, i32* %7, align 4
  %46 = sext i32 %45 to i64
  %47 = getelementptr inbounds [101 x i32], [101 x i32]* %3, i64 0, i64 %46
  store i32 %44, i32* %47, align 4
  br label %48

48:                                               ; preds = %38
  %49 = load i32, i32* %7, align 4
  %50 = add nsw i32 %49, -1
  store i32 %50, i32* %7, align 4
  br label %35

51:                                               ; preds = %35
  %52 = load i32, i32* %9, align 4
  %53 = sub nsw i32 %52, 1
  store i32 %53, i32* %7, align 4
  br label %54

54:                                               ; preds = %77, %51
  %55 = load i32, i32* %7, align 4
  %56 = icmp sge i32 %55, 0
  br i1 %56, label %57, label %80

57:                                               ; preds = %54
  %58 = load i32, i32* %7, align 4
  %59 = sext i32 %58 to i64
  %60 = getelementptr inbounds [101 x i8], [101 x i8]* %2, i64 0, i64 %59
  %61 = load i8, i8* %60, align 1
  %62 = sext i8 %61 to i32
  %63 = sub nsw i32 %62, 48
  %64 = load i32*, i32** %5, align 8
  %65 = load i32, i32* %7, align 4
  %66 = sext i32 %65 to i64
  %67 = getelementptr inbounds i32, i32* %64, i64 %66
  store i32 %63, i32* %67, align 4
  %68 = load i32, i32* %7, align 4
  %69 = load i32, i32* %10, align 4
  %70 = icmp sge i32 %68, %69
  br i1 %70, label %71, label %76

71:                                               ; preds = %57
  %72 = load i32*, i32** %5, align 8
  %73 = load i32, i32* %7, align 4
  %74 = sext i32 %73 to i64
  %75 = getelementptr inbounds i32, i32* %72, i64 %74
  store i32 0, i32* %75, align 4
  br label %76

76:                                               ; preds = %71, %57
  br label %77

77:                                               ; preds = %76
  %78 = load i32, i32* %7, align 4
  %79 = add nsw i32 %78, -1
  store i32 %79, i32* %7, align 4
  br label %54

80:                                               ; preds = %54
  store i32 0, i32* %7, align 4
  br label %81

81:                                               ; preds = %97, %80
  %82 = load i32, i32* %7, align 4
  %83 = load i32, i32* %10, align 4
  %84 = icmp slt i32 %82, %83
  br i1 %84, label %85, label %100

85:                                               ; preds = %81
  %86 = load i32*, i32** %5, align 8
  %87 = load i32, i32* %7, align 4
  %88 = sext i32 %87 to i64
  %89 = getelementptr inbounds i32, i32* %86, i64 %88
  %90 = load i32, i32* %89, align 4
  %91 = load i32*, i32** %5, align 8
  %92 = load i32, i32* %7, align 4
  %93 = load i32, i32* %9, align 4
  %94 = add nsw i32 %92, %93
  %95 = sext i32 %94 to i64
  %96 = getelementptr inbounds i32, i32* %91, i64 %95
  store i32 %90, i32* %96, align 4
  br label %97

97:                                               ; preds = %85
  %98 = load i32, i32* %7, align 4
  %99 = add nsw i32 %98, 1
  store i32 %99, i32* %7, align 4
  br label %81

100:                                              ; preds = %81
  %101 = load i32, i32* %9, align 4
  %102 = sub nsw i32 %101, 1
  store i32 %102, i32* %7, align 4
  br label %103

103:                                              ; preds = %147, %100
  %104 = load i32, i32* %7, align 4
  %105 = icmp sge i32 %104, 0
  br i1 %105, label %106, label %150

106:                                              ; preds = %103
  %107 = load i32, i32* %7, align 4
  %108 = sext i32 %107 to i64
  %109 = getelementptr inbounds [101 x i32], [101 x i32]* %3, i64 0, i64 %108
  %110 = load i32, i32* %109, align 4
  %111 = load i32*, i32** %5, align 8
  %112 = load i32, i32* %7, align 4
  %113 = load i32, i32* %10, align 4
  %114 = add nsw i32 %112, %113
  %115 = sext i32 %114 to i64
  %116 = getelementptr inbounds i32, i32* %111, i64 %115
  %117 = load i32, i32* %116, align 4
  %118 = sub nsw i32 %110, %117
  %119 = load i32, i32* %7, align 4
  %120 = sext i32 %119 to i64
  %121 = getelementptr inbounds [101 x i32], [101 x i32]* %4, i64 0, i64 %120
  store i32 %118, i32* %121, align 4
  %122 = load i32, i32* %7, align 4
  %123 = sext i32 %122 to i64
  %124 = getelementptr inbounds [101 x i32], [101 x i32]* %4, i64 0, i64 %123
  %125 = load i32, i32* %124, align 4
  %126 = icmp slt i32 %125, 0
  br i1 %126, label %127, label %146

127:                                              ; preds = %106
  %128 = load i32, i32* %7, align 4
  %129 = sext i32 %128 to i64
  %130 = getelementptr inbounds [101 x i32], [101 x i32]* %4, i64 0, i64 %129
  %131 = load i32, i32* %130, align 4
  %132 = add nsw i32 %131, 10
  %133 = load i32, i32* %7, align 4
  %134 = sext i32 %133 to i64
  %135 = getelementptr inbounds [101 x i32], [101 x i32]* %4, i64 0, i64 %134
  store i32 %132, i32* %135, align 4
  %136 = load i32, i32* %7, align 4
  %137 = sub nsw i32 %136, 1
  %138 = sext i32 %137 to i64
  %139 = getelementptr inbounds [101 x i32], [101 x i32]* %3, i64 0, i64 %138
  %140 = load i32, i32* %139, align 4
  %141 = sub nsw i32 %140, 1
  %142 = load i32, i32* %7, align 4
  %143 = sub nsw i32 %142, 1
  %144 = sext i32 %143 to i64
  %145 = getelementptr inbounds [101 x i32], [101 x i32]* %3, i64 0, i64 %144
  store i32 %141, i32* %145, align 4
  br label %146

146:                                              ; preds = %127, %106
  br label %147

147:                                              ; preds = %146
  %148 = load i32, i32* %7, align 4
  %149 = add nsw i32 %148, -1
  store i32 %149, i32* %7, align 4
  br label %103

150:                                              ; preds = %103
  %151 = getelementptr inbounds [101 x i32], [101 x i32]* %4, i64 0, i64 0
  %152 = load i32, i32* %151, align 16
  %153 = icmp ne i32 %152, 0
  br i1 %153, label %154, label %158

154:                                              ; preds = %150
  %155 = getelementptr inbounds [101 x i32], [101 x i32]* %4, i64 0, i64 0
  %156 = load i32, i32* %155, align 16
  %157 = call i32 (i8*, ...) @printf(i8* getelementptr inbounds ([3 x i8], [3 x i8]* @.str, i64 0, i64 0), i32 %156)
  br label %158

158:                                              ; preds = %154, %150
  store i32 1, i32* %7, align 4
  br label %159

159:                                              ; preds = %170, %158
  %160 = load i32, i32* %7, align 4
  %161 = load i32, i32* %9, align 4
  %162 = sub nsw i32 %161, 2
  %163 = icmp sle i32 %160, %162
  br i1 %163, label %164, label %173

164:                                              ; preds = %159
  %165 = load i32, i32* %7, align 4
  %166 = sext i32 %165 to i64
  %167 = getelementptr inbounds [101 x i32], [101 x i32]* %4, i64 0, i64 %166
  %168 = load i32, i32* %167, align 4
  %169 = call i32 (i8*, ...) @printf(i8* getelementptr inbounds ([3 x i8], [3 x i8]* @.str, i64 0, i64 0), i32 %168)
  br label %170

170:                                              ; preds = %164
  %171 = load i32, i32* %7, align 4
  %172 = add nsw i32 %171, 1
  store i32 %172, i32* %7, align 4
  br label %159

173:                                              ; preds = %159
  %174 = load i32, i32* %9, align 4
  %175 = sub nsw i32 %174, 1
  %176 = sext i32 %175 to i64
  %177 = getelementptr inbounds [101 x i32], [101 x i32]* %4, i64 0, i64 %176
  %178 = load i32, i32* %177, align 4
  %179 = call i32 (i8*, ...) @printf(i8* getelementptr inbounds ([4 x i8], [4 x i8]* @.str.2, i64 0, i64 0), i32 %178)
  br label %180

180:                                              ; preds = %173
  %181 = load i32, i32* %8, align 4
  %182 = add nsw i32 %181, 1
  store i32 %182, i32* %8, align 4
  br label %12

183:                                              ; preds = %12
  ret void
}